Certificate:
    Data:
        Version: 1 (0x0)
        Serial Number:
            6d:76:c3:a4:2a:6b:26:00:5a:7b:71:0c:de:7d:75:4d
    Signature Algorithm: sha256WithRSAEncryption
        Issuer: C=NL, O=SURFnet, CN=SURFconext Root CA
        Validity
            Not Before: Jan 14 16:39:05 2019 GMT
            Not After : Jan 18 16:39:05 2024 GMT
        Subject: C=NL, ST=Utrecht, O=SURFnet, OU=SURFconext, CN=SURFconext metadata signer
        Subject Public Key Info:
            Public Key Algorithm: rsaEncryption
                Public-Key: (2048 bit)
                Modulus:
                    00:c7:24:17:2a:97:cd:6e:dd:6c:cb:78:c0:37:52:
                    2d:a0:23:14:06:cd:ce:25:20:41:a8:af:bb:87:65:
                    f5:47:ff:71:9e:1f:df:a6:bd:0d:f4:01:51:2a:da:
                    36:82:11:ef:aa:ee:c0:ad:d3:3d:f1:5a:95:e9:a9:
                    c6:65:93:b2:85:52:42:96:f7:00:eb:16:6d:4f:a2:
                    d1:82:92:d5:c9:9c:a8:c5:02:d5:f7:9f:da:3d:48:
                    6e:e2:b8:07:89:c4:bb:d4:b9:b1:a1:8d:54:63:6f:
                    50:9f:98:8c:35:29:0b:9b:f2:ca:9e:db:a1:6f:44:
                    d6:67:76:8c:80:48:e8:cc:3e:66:19:66:90:fb:9c:
                    a9:aa:61:c6:ea:d6:9e:6d:0a:6f:14:d9:ad:82:ce:
                    05:9d:48:5e:3e:ab:ca:b4:68:17:0c:2d:8c:41:fe:
                    09:6f:1c:46:7f:0e:01:32:b4:ab:8c:9b:d0:15:6b:
                    da:06:36:b6:9f:e5:4e:90:12:1d:9d:d6:55:60:4a:
                    d2:9a:f0:2b:42:a4:ba:c6:3a:72:4f:bf:be:f9:64:
                    e3:a2:1d:12:bf:34:dc:d0:74:0e:6d:c4:0a:1d:e2:
                    eb:99:9f:09:a5:b3:55:3b:5d:fe:67:7c:ef:8a:5a:
                    2b:ee:b9:7f:52:5e:57:27:79:23:96:a5:33:62:84:
                    a6:f9
                Exponent: 65537 (0x10001)
    Signature Algorithm: sha256WithRSAEncryption
         8e:f2:57:5e:4c:4e:aa:1d:ca:d2:4d:8d:74:31:b9:10:e4:f2:
         6c:0f:a4:a1:16:c0:aa:17:58:fe:a2:68:4a:7a:93:cf:00:71:
         25:ce:9a:3e:cf:8b:e2:ad:8f:22:82:e8:d2:03:49:8f:53:66:
         d6:d6:8b:ba:c6:9a:2b:e0:81:c7:76:ab:d6:4c:44:8a:46:b9:
         14:cd:1d:a8:58:c3:de:2e:d8:e5:4d:05:31:e0:c1:e5:c4:5e:
         a3:c4:cd:76:8d:f5:54:6a:18:ec:26:d1:8e:da:87:2d:14:ee:
         2b:33:66:21:f1:26:6a:12:e7:1c:80:6d:6a:b1:3c:d9:be:cc:
         a6:0d:1a:2f:18:eb:45:1f:ad:f3:04:82:ae:2c:be:7b:d0:04:
         3f:30:b9:6d:6c:6d:3c:90:3e:3a:15:3c:53:d8:4c:b8:eb:39:
         4b:32:a6:1f:06:2e:7b:85:98:de:ad:6b:45:a0:e9:2b:77:ea:
         81:74:43:45:fc:e7:36:7f:7f:44:30:db:06:8b:3b:09:13:12:
         00:f1:26:00:ed:bc:a8:b2:81:5b:fd:73:6b:64:ca:40:b7:5d:
         67:7b:a8:0a:ea:c5:35:b4:e8:49:3b:9e:29:85:44:9e:f7:90:
         34:ed:8f:e5:7e:ae:cb:8a:dc:62:48:de:4a:2c:1b:98:7a:3b:
         8d:8b:87:03:1c:78:b8:6c:c7:32:9a:2a:a0:63:71:fb:68:98:
         8e:d5:28:dd:d2:54:5f:37:19:6a:2d:d7:f9:1b:ae:30:a5:d7:
         be:a1:b3:af:12:6c:a0:a6:b2:35:50:04:d5:d5:a8:50:72:65:
         46:8b:8f:84:32:d3:75:9a:bf:a5:b9:4e:46:11:52:f2:bd:74:
         ac:a8:52:49:c8:2b:36:e3:7d:2d:34:d5:ec:43:c5:79:5a:fc:
         b6:ba:1c:37:09:7c:22:bb:87:f9:e3:4b:eb:fe:db:e5:8e:df:
         6f:ba:ef:a7:17:87:8d:6a:d3:cf:c6:bd:05:70:08:02:ff:9b:
         83:2a:e0:e0:e1:c6:45:c3:48:41:bd:17:17:8d:fc:1c:3f:6b:
         f1:96:fd:d8:1e:99:54:24:77:69:54:b9:e3:de:be:d6:d7:7e:
         f1:a3:7f:06:5c:e8:e7:d2:e1:28:f8:87:c8:66:42:3c:71:55:
         fe:80:6a:1b:b9:f1:a7:ad:37:91:c5:a6:24:e7:06:f8:08:01:
         f5:b1:62:02:29:85:e4:b2:e4:fc:b9:cc:7e:99:4a:f7:0d:2f:
         bf:15:95:71:d4:24:0e:05:4f:62:f1:06:36:db:6d:8f:44:02:
         ef:f8:cc:e1:97:a2:84:66:fa:3b:2c:f2:0d:90:3a:69:e8:3b:
         df:fc:a0:38:04:d0:d7:70
-----BEGIN CERTIFICATE-----
MIIEKjCCAhICEG12w6QqayYAWntxDN59dU0wDQYJKoZIhvcNAQELBQAwPDELMAkG
A1UEBhMCTkwxEDAOBgNVBAoMB1NVUkZuZXQxGzAZBgNVBAMMElNVUkZjb25leHQg
Um9vdCBDQTAeFw0xOTAxMTQxNjM5MDVaFw0yNDAxMTgxNjM5MDVaMGsxCzAJBgNV
BAYTAk5MMRAwDgYDVQQIDAdVdHJlY2h0MRAwDgYDVQQKDAdTVVJGbmV0MRMwEQYD
VQQLDApTVVJGY29uZXh0MSMwIQYDVQQDDBpTVVJGY29uZXh0IG1ldGFkYXRhIHNp
Z25lcjCCASIwDQYJKoZIhvcNAQEBBQADggEPADCCAQoCggEBAMckFyqXzW7dbMt4
wDdSLaAjFAbNziUgQaivu4dl9Uf/cZ4f36a9DfQBUSraNoIR76ruwK3TPfFalemp
xmWTsoVSQpb3AOsWbU+i0YKS1cmcqMUC1fef2j1IbuK4B4nEu9S5saGNVGNvUJ+Y
jDUpC5vyyp7boW9E1md2jIBI6Mw+ZhlmkPucqaphxurWnm0KbxTZrYLOBZ1IXj6r
yrRoFwwtjEH+CW8cRn8OATK0q4yb0BVr2gY2tp/lTpASHZ3WVWBK0prwK0KkusY6
ck+/vvlk46IdEr803NB0Dm3ECh3i65mfCaWzVTtd/md874paK+65f1JeVyd5I5al
M2KEpvkCAwEAATANBgkqhkiG9w0BAQsFAAOCAgEAjvJXXkxOqh3K0k2NdDG5EOTy
bA+koRbAqhdY/qJoSnqTzwBxJc6aPs+L4q2PIoLo0gNJj1Nm1taLusaaK+CBx3ar
1kxEika5FM0dqFjD3i7Y5U0FMeDB5cReo8TNdo31VGoY7CbRjtqHLRTuKzNmIfEm
ahLnHIBtarE82b7Mpg0aLxjrRR+t8wSCriy+e9AEPzC5bWxtPJA+OhU8U9hMuOs5
SzKmHwYue4WY3q1rRaDpK3fqgXRDRfznNn9/RDDbBos7CRMSAPEmAO28qLKBW/1z
a2TKQLddZ3uoCurFNbToSTueKYVEnveQNO2P5X6uy4rcYkjeSiwbmHo7jYuHAxx4
uGzHMpoqoGNx+2iYjtUo3dJUXzcZai3X+RuuMKXXvqGzrxJsoKayNVAE1dWoUHJl
RouPhDLTdZq/pblORhFS8r10rKhSScgrNuN9LTTV7EPFeVr8trocNwl8IruH+eNL
6/7b5Y7fb7rvpxeHjWrTz8a9BXAIAv+bgyrg4OHGRcNIQb0XF438HD9r8Zb92B6Z
VCR3aVS5496+1td+8aN/Blzo59LhKPiHyGZCPHFV/oBqG7nxp603kcWmJOcG+AgB
9bFiAimF5LLk/LnMfplK9w0vvxWVcdQkDgVPYvEGNtttj0QC7/jM4ZeihGb6Oyzy
DZA6aeg73/ygOATQ13A=
-----END CERTIFICATE-----
