Certificate:
    Data:
        Version: 3 (0x2)
        Serial Number: 9803397900186151802 (0x880caa731867eb7a)
    Signature Algorithm: sha256WithRSAEncryption
        Issuer: C=NL, ST=Utrecht, L=Utrecht, O=SURFnet B.V., OU=SURFconext, CN=engine.surfconext.nl 20181213
        Validity
            Not Before: Dec 13 15:29:20 2018 GMT
            Not After : Dec 13 15:29:20 2023 GMT
        Subject: C=NL, ST=Utrecht, L=Utrecht, O=SURFnet B.V., OU=SURFconext, CN=engine.surfconext.nl 20181213
        Subject Public Key Info:
            Public Key Algorithm: rsaEncryption
                Public-Key: (2048 bit)
                Modulus:
                    00:b3:ce:19:2f:9f:04:44:5f:99:68:95:f1:a5:7c:
                    e7:3e:39:42:cb:85:c3:78:24:ab:41:db:59:1d:49:
                    1b:3e:dc:8e:a8:63:57:a6:19:1c:55:f2:46:de:22:
                    90:6f:ff:f4:12:07:4b:4c:5c:fd:c5:b5:b0:e3:27:
                    4a:e0:a3:0e:16:3c:3a:1f:dd:3a:4d:35:cd:f8:05:
                    5d:47:2f:fb:48:8d:96:41:0a:18:c9:53:ff:12:69:
                    20:32:32:fc:de:16:8e:91:af:90:93:b6:a0:91:df:
                    ad:05:18:d7:5e:43:bb:9e:8c:48:ca:9d:d2:03:ef:
                    a3:53:ac:0e:f5:eb:a1:88:af:ab:16:29:4d:31:f3:
                    69:fe:53:61:06:0f:7f:a9:ff:de:b1:1f:b2:ed:ee:
                    e8:bd:e9:cc:4d:ff:ab:7f:23:9c:4c:b1:7d:0d:54:
                    a1:9f:55:17:61:72:ea:87:bf:4a:d9:70:84:f5:09:
                    85:5c:07:94:a0:cc:a9:0f:93:fa:d9:63:0e:dd:ba:
                    3a:4f:50:2f:7c:f3:5b:d2:6d:06:8f:a9:9f:27:4c:
                    4f:fa:e0:e6:1e:cd:5b:c0:3d:1c:04:8b:9d:12:ca:
                    f2:b1:43:f6:70:44:74:03:e4:2b:e7:a5:4c:4e:90:
                    75:d4:62:4e:1f:47:f3:82:82:b3:47:d0:8a:24:fa:
                    60:5b
                Exponent: 65537 (0x10001)
        X509v3 extensions:
            X509v3 Subject Key Identifier: 
                02:6E:65:AE:EE:D1:FD:28:DA:40:7D:B9:13:E8:07:F7:A4:C7:4E:2C
            X509v3 Authority Key Identifier: 
                keyid:02:6E:65:AE:EE:D1:FD:28:DA:40:7D:B9:13:E8:07:F7:A4:C7:4E:2C

            X509v3 Key Usage: 
                Digital Signature
            X509v3 Basic Constraints: 
                CA:TRUE
    Signature Algorithm: sha256WithRSAEncryption
         57:87:99:7c:bb:e9:dc:3d:79:0c:c8:3a:83:ba:29:0d:2d:ef:
         d7:e6:3d:0a:36:3b:ea:52:d4:3a:40:f4:52:b7:c3:0c:be:34:
         58:59:97:55:0b:48:0c:3a:d2:84:01:8d:7f:71:89:c0:db:2f:
         b4:ca:b1:aa:9b:2f:48:ff:30:5d:2d:5e:f7:04:12:e7:56:55:
         76:59:80:13:60:e6:4b:58:d5:b7:ea:48:c1:b5:d4:9b:1f:4a:
         17:06:9e:c7:3a:ef:c8:e2:53:fe:4a:fe:bd:79:13:7a:a7:6f:
         fd:0a:60:f2:29:ce:49:52:95:d4:dc:f1:1f:b6:fe:4b:c2:ca:
         9c:a3:c3:0c:aa:a1:0d:87:0c:d8:97:14:5b:f7:a2:c5:ab:4f:
         14:9f:64:10:a1:5e:b4:1e:a5:f8:2a:ce:fd:a9:4a:e7:8d:12:
         f9:a4:ab:68:3f:8b:a3:2e:63:ea:40:88:9e:1e:94:e0:b2:f1:
         d2:a9:26:be:f6:d6:4c:9f:21:1a:24:4b:e5:ee:fa:4d:9f:53:
         3b:bf:56:d6:39:6c:23:42:f3:25:62:74:aa:e5:bd:14:e6:01:
         d7:82:97:41:61:27:d6:9c:2c:30:a6:ae:21:f0:a1:d9:ef:f5:
         d5:bc:e5:6c:75:8a:63:1d:aa:7e:f7:4e:ce:1a:1a:97:18:1b:
         08:a9:ff:54
-----BEGIN CERTIFICATE-----
MIID7DCCAtSgAwIBAgIJAIgMqnMYZ+t6MA0GCSqGSIb3DQEBCwUAMIGFMQswCQYD
VQQGEwJOTDEQMA4GA1UECAwHVXRyZWNodDEQMA4GA1UEBwwHVXRyZWNodDEVMBMG
A1UECgwMU1VSRm5ldCBCLlYuMRMwEQYDVQQLDApTVVJGY29uZXh0MSYwJAYDVQQD
DB1lbmdpbmUuc3VyZmNvbmV4dC5ubCAyMDE4MTIxMzAeFw0xODEyMTMxNTI5MjBa
Fw0yMzEyMTMxNTI5MjBaMIGFMQswCQYDVQQGEwJOTDEQMA4GA1UECAwHVXRyZWNo
dDEQMA4GA1UEBwwHVXRyZWNodDEVMBMGA1UECgwMU1VSRm5ldCBCLlYuMRMwEQYD
VQQLDApTVVJGY29uZXh0MSYwJAYDVQQDDB1lbmdpbmUuc3VyZmNvbmV4dC5ubCAy
MDE4MTIxMzCCASIwDQYJKoZIhvcNAQEBBQADggEPADCCAQoCggEBALPOGS+fBERf
mWiV8aV85z45QsuFw3gkq0HbWR1JGz7cjqhjV6YZHFXyRt4ikG//9BIHS0xc/cW1
sOMnSuCjDhY8Oh/dOk01zfgFXUcv+0iNlkEKGMlT/xJpIDIy/N4WjpGvkJO2oJHf
rQUY115Du56MSMqd0gPvo1OsDvXroYivqxYpTTHzaf5TYQYPf6n/3rEfsu3u6L3p
zE3/q38jnEyxfQ1UoZ9VF2Fy6oe/StlwhPUJhVwHlKDMqQ+T+tljDt26Ok9QL3zz
W9JtBo+pnydMT/rg5h7NW8A9HASLnRLK8rFD9nBEdAPkK+elTE6QddRiTh9H84KC
s0fQiiT6YFsCAwEAAaNdMFswHQYDVR0OBBYEFAJuZa7u0f0o2kB9uRPoB/ekx04s
MB8GA1UdIwQYMBaAFAJuZa7u0f0o2kB9uRPoB/ekx04sMAsGA1UdDwQEAwIHgDAM
BgNVHRMEBTADAQH/MA0GCSqGSIb3DQEBCwUAA4IBAQBXh5l8u+ncPXkMyDqDuikN
Le/X5j0KNjvqUtQ6QPRSt8MMvjRYWZdVC0gMOtKEAY1/cYnA2y+0yrGqmy9I/zBd
LV73BBLnVlV2WYATYOZLWNW36kjBtdSbH0oXBp7HOu/I4lP+Sv69eRN6p2/9CmDy
Kc5JUpXU3PEftv5Lwsqco8MMqqENhwzYlxRb96LFq08Un2QQoV60HqX4Ks79qUrn
jRL5pKtoP4ujLmPqQIieHpTgsvHSqSa+9tZMnyEaJEvl7vpNn1M7v1bWOWwjQvMl
YnSq5b0U5gHXgpdBYSfWnCwwpq4h8KHZ7/XVvOVsdYpjHap+907OGhqXGBsIqf9U
-----END CERTIFICATE-----
